
Rasenmaeher_V0_0.elf:     file format elf32-avr

Sections:
Idx Name          Size      VMA       LMA       File off  Algn
  0 .text         00000402  00000000  00000000  00000094  2**1
                  CONTENTS, ALLOC, LOAD, READONLY, CODE
  1 .data         00000000  00800060  00000402  00000496  2**0
                  CONTENTS, ALLOC, LOAD, DATA
  2 .bss          00000010  00800060  00800060  00000496  2**0
                  ALLOC
  3 .stab         000006cc  00000000  00000000  00000498  2**2
                  CONTENTS, READONLY, DEBUGGING
  4 .stabstr      00000097  00000000  00000000  00000b64  2**0
                  CONTENTS, READONLY, DEBUGGING
  5 .comment      0000002f  00000000  00000000  00000bfb  2**0
                  CONTENTS, READONLY
  6 .debug_aranges 000000c0  00000000  00000000  00000c2a  2**0
                  CONTENTS, READONLY, DEBUGGING
  7 .debug_info   0000060b  00000000  00000000  00000cea  2**0
                  CONTENTS, READONLY, DEBUGGING
  8 .debug_abbrev 000002ac  00000000  00000000  000012f5  2**0
                  CONTENTS, READONLY, DEBUGGING
  9 .debug_line   0000043e  00000000  00000000  000015a1  2**0
                  CONTENTS, READONLY, DEBUGGING
 10 .debug_frame  00000218  00000000  00000000  000019e0  2**2
                  CONTENTS, READONLY, DEBUGGING
 11 .debug_str    00000257  00000000  00000000  00001bf8  2**0
                  CONTENTS, READONLY, DEBUGGING
 12 .debug_loc    00000650  00000000  00000000  00001e4f  2**0
                  CONTENTS, READONLY, DEBUGGING
 13 .debug_ranges 000000a0  00000000  00000000  0000249f  2**0
                  CONTENTS, READONLY, DEBUGGING

Disassembly of section .text:

00000000 <__vectors>:
   0:	0c 94 2a 00 	jmp	0x54	; 0x54 <__ctors_end>
   4:	0c 94 b8 00 	jmp	0x170	; 0x170 <__vector_1>
   8:	0c 94 3c 00 	jmp	0x78	; 0x78 <__bad_interrupt>
   c:	0c 94 3c 00 	jmp	0x78	; 0x78 <__bad_interrupt>
  10:	0c 94 d6 01 	jmp	0x3ac	; 0x3ac <__vector_4>
  14:	0c 94 3c 00 	jmp	0x78	; 0x78 <__bad_interrupt>
  18:	0c 94 3c 00 	jmp	0x78	; 0x78 <__bad_interrupt>
  1c:	0c 94 3c 00 	jmp	0x78	; 0x78 <__bad_interrupt>
  20:	0c 94 3c 00 	jmp	0x78	; 0x78 <__bad_interrupt>
  24:	0c 94 11 01 	jmp	0x222	; 0x222 <__vector_9>
  28:	0c 94 3c 00 	jmp	0x78	; 0x78 <__bad_interrupt>
  2c:	0c 94 3c 00 	jmp	0x78	; 0x78 <__bad_interrupt>
  30:	0c 94 3c 00 	jmp	0x78	; 0x78 <__bad_interrupt>
  34:	0c 94 3c 00 	jmp	0x78	; 0x78 <__bad_interrupt>
  38:	0c 94 3c 00 	jmp	0x78	; 0x78 <__bad_interrupt>
  3c:	0c 94 3c 00 	jmp	0x78	; 0x78 <__bad_interrupt>
  40:	0c 94 3c 00 	jmp	0x78	; 0x78 <__bad_interrupt>
  44:	0c 94 3c 00 	jmp	0x78	; 0x78 <__bad_interrupt>
  48:	0c 94 3c 00 	jmp	0x78	; 0x78 <__bad_interrupt>
  4c:	0c 94 3c 00 	jmp	0x78	; 0x78 <__bad_interrupt>
  50:	0c 94 3c 00 	jmp	0x78	; 0x78 <__bad_interrupt>

00000054 <__ctors_end>:
  54:	11 24       	eor	r1, r1
  56:	1f be       	out	0x3f, r1	; 63
  58:	cf e5       	ldi	r28, 0x5F	; 95
  5a:	d4 e0       	ldi	r29, 0x04	; 4
  5c:	de bf       	out	0x3e, r29	; 62
  5e:	cd bf       	out	0x3d, r28	; 61

00000060 <__do_clear_bss>:
  60:	20 e0       	ldi	r18, 0x00	; 0
  62:	a0 e6       	ldi	r26, 0x60	; 96
  64:	b0 e0       	ldi	r27, 0x00	; 0
  66:	01 c0       	rjmp	.+2      	; 0x6a <.do_clear_bss_start>

00000068 <.do_clear_bss_loop>:
  68:	1d 92       	st	X+, r1

0000006a <.do_clear_bss_start>:
  6a:	a0 37       	cpi	r26, 0x70	; 112
  6c:	b2 07       	cpc	r27, r18
  6e:	e1 f7       	brne	.-8      	; 0x68 <.do_clear_bss_loop>
  70:	0e 94 f6 01 	call	0x3ec	; 0x3ec <main>
  74:	0c 94 ff 01 	jmp	0x3fe	; 0x3fe <_exit>

00000078 <__bad_interrupt>:
  78:	0c 94 00 00 	jmp	0	; 0x0 <__vectors>

0000007c <RemoteInit>:
  7c:	84 b3       	in	r24, 0x14	; 20
  7e:	80 6e       	ori	r24, 0xE0	; 224
  80:	84 bb       	out	0x14, r24	; 20
  82:	08 95       	ret

00000084 <startRemoteIn>:
  84:	80 91 61 00 	lds	r24, 0x0061
  88:	80 fd       	sbrc	r24, 0
  8a:	39 c0       	rjmp	.+114    	; 0xfe <startRemoteIn+0x7a>
  8c:	81 60       	ori	r24, 0x01	; 1
  8e:	80 93 61 00 	sts	0x0061, r24
  92:	80 91 69 00 	lds	r24, 0x0069
  96:	8f 5f       	subi	r24, 0xFF	; 255
  98:	80 93 69 00 	sts	0x0069, r24
  9c:	86 30       	cpi	r24, 0x06	; 6
  9e:	18 f0       	brcs	.+6      	; 0xa6 <startRemoteIn+0x22>
  a0:	10 92 69 00 	sts	0x0069, r1
  a4:	0e c0       	rjmp	.+28     	; 0xc2 <startRemoteIn+0x3e>
  a6:	82 30       	cpi	r24, 0x02	; 2
  a8:	91 f0       	breq	.+36     	; 0xce <startRemoteIn+0x4a>
  aa:	28 f4       	brcc	.+10     	; 0xb6 <startRemoteIn+0x32>
  ac:	88 23       	and	r24, r24
  ae:	49 f0       	breq	.+18     	; 0xc2 <startRemoteIn+0x3e>
  b0:	81 30       	cpi	r24, 0x01	; 1
  b2:	a1 f4       	brne	.+40     	; 0xdc <startRemoteIn+0x58>
  b4:	0a c0       	rjmp	.+20     	; 0xca <startRemoteIn+0x46>
  b6:	84 30       	cpi	r24, 0x04	; 4
  b8:	71 f0       	breq	.+28     	; 0xd6 <startRemoteIn+0x52>
  ba:	58 f0       	brcs	.+22     	; 0xd2 <startRemoteIn+0x4e>
  bc:	85 30       	cpi	r24, 0x05	; 5
  be:	71 f4       	brne	.+28     	; 0xdc <startRemoteIn+0x58>
  c0:	0c c0       	rjmp	.+24     	; 0xda <startRemoteIn+0x56>
  c2:	85 b3       	in	r24, 0x15	; 21
  c4:	8f 71       	andi	r24, 0x1F	; 31
  c6:	85 bb       	out	0x15, r24	; 21
  c8:	09 c0       	rjmp	.+18     	; 0xdc <startRemoteIn+0x58>
  ca:	ad 9a       	sbi	0x15, 5	; 21
  cc:	07 c0       	rjmp	.+14     	; 0xdc <startRemoteIn+0x58>
  ce:	ae 9a       	sbi	0x15, 6	; 21
  d0:	05 c0       	rjmp	.+10     	; 0xdc <startRemoteIn+0x58>
  d2:	ad 98       	cbi	0x15, 5	; 21
  d4:	03 c0       	rjmp	.+6      	; 0xdc <startRemoteIn+0x58>
  d6:	af 9a       	sbi	0x15, 7	; 21
  d8:	01 c0       	rjmp	.+2      	; 0xdc <startRemoteIn+0x58>
  da:	ad 9a       	sbi	0x15, 5	; 21
  dc:	85 b7       	in	r24, 0x35	; 53
  de:	83 60       	ori	r24, 0x03	; 3
  e0:	85 bf       	out	0x35, r24	; 53
  e2:	8b b7       	in	r24, 0x3b	; 59
  e4:	80 64       	ori	r24, 0x40	; 64
  e6:	8b bf       	out	0x3b, r24	; 59
  e8:	83 b7       	in	r24, 0x33	; 51
  ea:	88 7f       	andi	r24, 0xF8	; 248
  ec:	83 bf       	out	0x33, r24	; 51
  ee:	83 b7       	in	r24, 0x33	; 51
  f0:	84 60       	ori	r24, 0x04	; 4
  f2:	83 bf       	out	0x33, r24	; 51
  f4:	12 be       	out	0x32, r1	; 50
  f6:	89 b7       	in	r24, 0x39	; 57
  f8:	81 60       	ori	r24, 0x01	; 1
  fa:	89 bf       	out	0x39, r24	; 57
  fc:	78 94       	sei
  fe:	08 95       	ret

00000100 <RemoteChannelFail>:
 100:	98 2f       	mov	r25, r24
 102:	86 2f       	mov	r24, r22
 104:	92 30       	cpi	r25, 0x02	; 2
 106:	81 f0       	breq	.+32     	; 0x128 <RemoteChannelFail+0x28>
 108:	28 f4       	brcc	.+10     	; 0x114 <RemoteChannelFail+0x14>
 10a:	99 23       	and	r25, r25
 10c:	49 f0       	breq	.+18     	; 0x120 <RemoteChannelFail+0x20>
 10e:	91 30       	cpi	r25, 0x01	; 1
 110:	91 f4       	brne	.+36     	; 0x136 <RemoteChannelFail+0x36>
 112:	08 c0       	rjmp	.+16     	; 0x124 <RemoteChannelFail+0x24>
 114:	94 30       	cpi	r25, 0x04	; 4
 116:	61 f0       	breq	.+24     	; 0x130 <RemoteChannelFail+0x30>
 118:	48 f0       	brcs	.+18     	; 0x12c <RemoteChannelFail+0x2c>
 11a:	95 30       	cpi	r25, 0x05	; 5
 11c:	61 f4       	brne	.+24     	; 0x136 <RemoteChannelFail+0x36>
 11e:	0a c0       	rjmp	.+20     	; 0x134 <RemoteChannelFail+0x34>
 120:	82 60       	ori	r24, 0x02	; 2
 122:	08 95       	ret
 124:	84 60       	ori	r24, 0x04	; 4
 126:	08 95       	ret
 128:	88 60       	ori	r24, 0x08	; 8
 12a:	08 95       	ret
 12c:	80 61       	ori	r24, 0x10	; 16
 12e:	08 95       	ret
 130:	80 62       	ori	r24, 0x20	; 32
 132:	08 95       	ret
 134:	80 64       	ori	r24, 0x40	; 64
 136:	08 95       	ret

00000138 <RemoteChannelUnfail>:
 138:	98 2f       	mov	r25, r24
 13a:	86 2f       	mov	r24, r22
 13c:	92 30       	cpi	r25, 0x02	; 2
 13e:	81 f0       	breq	.+32     	; 0x160 <RemoteChannelUnfail+0x28>
 140:	28 f4       	brcc	.+10     	; 0x14c <RemoteChannelUnfail+0x14>
 142:	99 23       	and	r25, r25
 144:	49 f0       	breq	.+18     	; 0x158 <RemoteChannelUnfail+0x20>
 146:	91 30       	cpi	r25, 0x01	; 1
 148:	91 f4       	brne	.+36     	; 0x16e <RemoteChannelUnfail+0x36>
 14a:	08 c0       	rjmp	.+16     	; 0x15c <RemoteChannelUnfail+0x24>
 14c:	94 30       	cpi	r25, 0x04	; 4
 14e:	61 f0       	breq	.+24     	; 0x168 <RemoteChannelUnfail+0x30>
 150:	48 f0       	brcs	.+18     	; 0x164 <RemoteChannelUnfail+0x2c>
 152:	95 30       	cpi	r25, 0x05	; 5
 154:	61 f4       	brne	.+24     	; 0x16e <RemoteChannelUnfail+0x36>
 156:	0a c0       	rjmp	.+20     	; 0x16c <RemoteChannelUnfail+0x34>
 158:	8d 7f       	andi	r24, 0xFD	; 253
 15a:	08 95       	ret
 15c:	8b 7f       	andi	r24, 0xFB	; 251
 15e:	08 95       	ret
 160:	87 7f       	andi	r24, 0xF7	; 247
 162:	08 95       	ret
 164:	8f 7e       	andi	r24, 0xEF	; 239
 166:	08 95       	ret
 168:	8f 7d       	andi	r24, 0xDF	; 223
 16a:	08 95       	ret
 16c:	8f 7b       	andi	r24, 0xBF	; 191
 16e:	08 95       	ret

00000170 <__vector_1>:
 170:	1f 92       	push	r1
 172:	0f 92       	push	r0
 174:	0f b6       	in	r0, 0x3f	; 63
 176:	0f 92       	push	r0
 178:	11 24       	eor	r1, r1
 17a:	2f 93       	push	r18
 17c:	3f 93       	push	r19
 17e:	4f 93       	push	r20
 180:	5f 93       	push	r21
 182:	6f 93       	push	r22
 184:	7f 93       	push	r23
 186:	8f 93       	push	r24
 188:	9f 93       	push	r25
 18a:	af 93       	push	r26
 18c:	bf 93       	push	r27
 18e:	ef 93       	push	r30
 190:	ff 93       	push	r31
 192:	85 b7       	in	r24, 0x35	; 53
 194:	83 70       	andi	r24, 0x03	; 3
 196:	83 30       	cpi	r24, 0x03	; 3
 198:	d9 f4       	brne	.+54     	; 0x1d0 <__vector_1+0x60>
 19a:	f8 94       	cli
 19c:	80 91 68 00 	lds	r24, 0x0068
 1a0:	81 30       	cpi	r24, 0x01	; 1
 1a2:	81 f4       	brne	.+32     	; 0x1c4 <__vector_1+0x54>
 1a4:	89 b7       	in	r24, 0x39	; 57
 1a6:	8e 7f       	andi	r24, 0xFE	; 254
 1a8:	89 bf       	out	0x39, r24	; 57
 1aa:	83 b7       	in	r24, 0x33	; 51
 1ac:	88 7f       	andi	r24, 0xF8	; 248
 1ae:	83 bf       	out	0x33, r24	; 51
 1b0:	83 b7       	in	r24, 0x33	; 51
 1b2:	82 60       	ori	r24, 0x02	; 2
 1b4:	83 bf       	out	0x33, r24	; 51
 1b6:	12 be       	out	0x32, r1	; 50
 1b8:	85 b7       	in	r24, 0x35	; 53
 1ba:	8e 7f       	andi	r24, 0xFE	; 254
 1bc:	85 bf       	out	0x35, r24	; 53
 1be:	10 92 68 00 	sts	0x0068, r1
 1c2:	04 c0       	rjmp	.+8      	; 0x1cc <__vector_1+0x5c>
 1c4:	12 be       	out	0x32, r1	; 50
 1c6:	81 e0       	ldi	r24, 0x01	; 1
 1c8:	80 93 68 00 	sts	0x0068, r24
 1cc:	78 94       	sei
 1ce:	18 c0       	rjmp	.+48     	; 0x200 <__vector_1+0x90>
 1d0:	82 30       	cpi	r24, 0x02	; 2
 1d2:	b1 f4       	brne	.+44     	; 0x200 <__vector_1+0x90>
 1d4:	f8 94       	cli
 1d6:	92 b7       	in	r25, 0x32	; 50
 1d8:	80 91 69 00 	lds	r24, 0x0069
 1dc:	e8 2f       	mov	r30, r24
 1de:	f0 e0       	ldi	r31, 0x00	; 0
 1e0:	ee 59       	subi	r30, 0x9E	; 158
 1e2:	ff 4f       	sbci	r31, 0xFF	; 255
 1e4:	90 83       	st	Z, r25
 1e6:	60 91 61 00 	lds	r22, 0x0061
 1ea:	6e 7f       	andi	r22, 0xFE	; 254
 1ec:	60 93 61 00 	sts	0x0061, r22
 1f0:	9b b7       	in	r25, 0x3b	; 59
 1f2:	9f 7b       	andi	r25, 0xBF	; 191
 1f4:	9b bf       	out	0x3b, r25	; 59
 1f6:	0e 94 9c 00 	call	0x138	; 0x138 <RemoteChannelUnfail>
 1fa:	80 93 61 00 	sts	0x0061, r24
 1fe:	78 94       	sei
 200:	ff 91       	pop	r31
 202:	ef 91       	pop	r30
 204:	bf 91       	pop	r27
 206:	af 91       	pop	r26
 208:	9f 91       	pop	r25
 20a:	8f 91       	pop	r24
 20c:	7f 91       	pop	r23
 20e:	6f 91       	pop	r22
 210:	5f 91       	pop	r21
 212:	4f 91       	pop	r20
 214:	3f 91       	pop	r19
 216:	2f 91       	pop	r18
 218:	0f 90       	pop	r0
 21a:	0f be       	out	0x3f, r0	; 63
 21c:	0f 90       	pop	r0
 21e:	1f 90       	pop	r1
 220:	18 95       	reti

00000222 <__vector_9>:
 222:	1f 92       	push	r1
 224:	0f 92       	push	r0
 226:	0f b6       	in	r0, 0x3f	; 63
 228:	0f 92       	push	r0
 22a:	11 24       	eor	r1, r1
 22c:	2f 93       	push	r18
 22e:	3f 93       	push	r19
 230:	4f 93       	push	r20
 232:	5f 93       	push	r21
 234:	6f 93       	push	r22
 236:	7f 93       	push	r23
 238:	8f 93       	push	r24
 23a:	9f 93       	push	r25
 23c:	af 93       	push	r26
 23e:	bf 93       	push	r27
 240:	ef 93       	push	r30
 242:	ff 93       	push	r31
 244:	f8 94       	cli
 246:	80 91 60 00 	lds	r24, 0x0060
 24a:	80 31       	cpi	r24, 0x10	; 16
 24c:	98 f0       	brcs	.+38     	; 0x274 <__vector_9+0x52>
 24e:	60 91 61 00 	lds	r22, 0x0061
 252:	6e 7f       	andi	r22, 0xFE	; 254
 254:	60 93 61 00 	sts	0x0061, r22
 258:	8b b7       	in	r24, 0x3b	; 59
 25a:	8f 7b       	andi	r24, 0xBF	; 191
 25c:	8b bf       	out	0x3b, r24	; 59
 25e:	89 b7       	in	r24, 0x39	; 57
 260:	8e 7f       	andi	r24, 0xFE	; 254
 262:	89 bf       	out	0x39, r24	; 57
 264:	80 91 69 00 	lds	r24, 0x0069
 268:	0e 94 80 00 	call	0x100	; 0x100 <RemoteChannelFail>
 26c:	80 93 61 00 	sts	0x0061, r24
 270:	10 92 60 00 	sts	0x0060, r1
 274:	80 91 60 00 	lds	r24, 0x0060
 278:	8f 5f       	subi	r24, 0xFF	; 255
 27a:	80 93 60 00 	sts	0x0060, r24
 27e:	78 94       	sei
 280:	ff 91       	pop	r31
 282:	ef 91       	pop	r30
 284:	bf 91       	pop	r27
 286:	af 91       	pop	r26
 288:	9f 91       	pop	r25
 28a:	8f 91       	pop	r24
 28c:	7f 91       	pop	r23
 28e:	6f 91       	pop	r22
 290:	5f 91       	pop	r21
 292:	4f 91       	pop	r20
 294:	3f 91       	pop	r19
 296:	2f 91       	pop	r18
 298:	0f 90       	pop	r0
 29a:	0f be       	out	0x3f, r0	; 63
 29c:	0f 90       	pop	r0
 29e:	1f 90       	pop	r1
 2a0:	18 95       	reti

000002a2 <init_All>:
{

//I/Os initialisieren																  

//Port B
DDRB |= (1<<Qx_MLP_GenOK) | (1<<Qx_GenEin);											//Ausgänge
 2a2:	87 b3       	in	r24, 0x17	; 23
 2a4:	88 68       	ori	r24, 0x88	; 136
 2a6:	87 bb       	out	0x17, r24	; 23
DDRB &= ~((1<<IxEntpan) | (1<<IxLadekon) | (1<<IxGenStart) | (1<<IxBenzMotAus));	//Eingänge
 2a8:	87 b3       	in	r24, 0x17	; 23
 2aa:	8c 7c       	andi	r24, 0xCC	; 204
 2ac:	87 bb       	out	0x17, r24	; 23

//Port C
DDRC |= (1<<Qx_Fahrr_Seilw) | (1<<Qx_Fahrr_links) | (1<<Qx_Fahrr_rechts);			//Ausgänge
 2ae:	84 b3       	in	r24, 0x14	; 20
 2b0:	8c 61       	ori	r24, 0x1C	; 28
 2b2:	84 bb       	out	0x14, r24	; 20
//--> Ausgänge für die Funkkanalvorwahl werden in "AuswertungFernst_Fkt.c" initialisiert

//Port C hat keine Eingangspins

//Port D
DDRD |= (1<<Qx_MLP_Stoer) | (1<<Qx_BenzMotEin) | (1<<Qpwm_FML) | (1<<Qpwm_FMR);		//Ausgänge
 2b4:	81 b3       	in	r24, 0x11	; 17
 2b6:	82 67       	ori	r24, 0x72	; 114
 2b8:	81 bb       	out	0x11, r24	; 17
DDRD &= ~(1<<Qx_BenzMotEin);														//Eingänge
 2ba:	8e 98       	cbi	0x11, 6	; 17

//Timer 2 initialisieren für Zeitverzögerung (Allgemeiner Timer)

TCCR2 |= (1<<CS22) | (1<<CS21) | (1<<CS20);		//Prescaler = 1024 // fTimer2 = ca. 4Hz
 2bc:	85 b5       	in	r24, 0x25	; 37
 2be:	87 60       	ori	r24, 0x07	; 7
 2c0:	85 bd       	out	0x25, r24	; 37
TIMSK |= (1<<TOIE2);							//Interrupt erlauben bei Overflow
 2c2:	89 b7       	in	r24, 0x39	; 57
 2c4:	80 64       	ori	r24, 0x40	; 64
 2c6:	89 bf       	out	0x39, r24	; 57

//Timer 1 initialisieren für Fahrmotoransteuerung
//Fast PWM 8Bit non-inverting mode
TCCR1A |= (1<<COM1A1) | (1<<COM1B1) | (1<<WGM10);
 2c8:	8f b5       	in	r24, 0x2f	; 47
 2ca:	81 6a       	ori	r24, 0xA1	; 161
 2cc:	8f bd       	out	0x2f, r24	; 47
TCCR1A &= ~((1<<WGM11));
 2ce:	8f b5       	in	r24, 0x2f	; 47
 2d0:	8d 7f       	andi	r24, 0xFD	; 253
 2d2:	8f bd       	out	0x2f, r24	; 47
TCCR1B |= (1<<WGM12);
 2d4:	8e b5       	in	r24, 0x2e	; 46
 2d6:	88 60       	ori	r24, 0x08	; 8
 2d8:	8e bd       	out	0x2e, r24	; 46
TCCR1B &= ~(1<<WGM13);
 2da:	8e b5       	in	r24, 0x2e	; 46
 2dc:	8f 7e       	andi	r24, 0xEF	; 239
 2de:	8e bd       	out	0x2e, r24	; 46

//Prescaler = 8 --> fPWM = 490Hz
TCCR1B |= (1<<CS11);
 2e0:	8e b5       	in	r24, 0x2e	; 46
 2e2:	82 60       	ori	r24, 0x02	; 2
 2e4:	8e bd       	out	0x2e, r24	; 46
TCCR1B &= ~((1<<CS12) | (1<<CS10));
 2e6:	8e b5       	in	r24, 0x2e	; 46
 2e8:	8a 7f       	andi	r24, 0xFA	; 250
 2ea:	8e bd       	out	0x2e, r24	; 46

//Fernsteuerungsauswertung initialisieren
RemoteInit();									
 2ec:	0e 94 3e 00 	call	0x7c	; 0x7c <RemoteInit>
 2f0:	08 95       	ret

000002f2 <updateFahrmot>:
	uint8_t outvalFMR = 0x00;		//PWM-Wert für Fahrmot links (rechts = OC1B)
	
	//========================================================================================
	//Fahrmotor links
	
	if((RemoteValue[3] > 178) & (RemoteValue[3] < 198))	//Nullstellung
 2f2:	80 91 65 00 	lds	r24, 0x0065
 2f6:	98 2f       	mov	r25, r24
 2f8:	93 5b       	subi	r25, 0xB3	; 179
 2fa:	93 31       	cpi	r25, 0x13	; 19
 2fc:	20 f1       	brcs	.+72     	; 0x346 <updateFahrmot+0x54>
	{
		outvalFML = 0x00;		//Mittelstellung: Motor anhalten
	}
	else if((RemoteValue[3] > 237) & (RemoteValue[3] < 255))				//Fahren vorwärts Maximum (ex 0x241)
 2fe:	9b 53       	subi	r25, 0x3B	; 59
 300:	91 31       	cpi	r25, 0x11	; 17
 302:	18 f4       	brcc	.+6      	; 0x30a <updateFahrmot+0x18>
	{
		outvalFML = 0xFE;						//Maximale Fahrstufe (PWM muss immer da sein)
		PORTC |= (1<<Qx_Fahrr_links);			//Fahrrichtung vorwärts: Pin = High
 304:	ab 9a       	sbi	0x15, 3	; 21
	{
		outvalFML = 0x00;		//Mittelstellung: Motor anhalten
	}
	else if((RemoteValue[3] > 237) & (RemoteValue[3] < 255))				//Fahren vorwärts Maximum (ex 0x241)
	{
		outvalFML = 0xFE;						//Maximale Fahrstufe (PWM muss immer da sein)
 306:	2e ef       	ldi	r18, 0xFE	; 254
 308:	21 c0       	rjmp	.+66     	; 0x34c <updateFahrmot+0x5a>
		PORTC |= (1<<Qx_Fahrr_links);			//Fahrrichtung vorwärts: Pin = High
	}
	else if((RemoteValue[3] < 139) & (RemoteValue[3] > 47))				//Fahrrichtung retour Maximum
 30a:	98 2f       	mov	r25, r24
 30c:	90 53       	subi	r25, 0x30	; 48
 30e:	9b 35       	cpi	r25, 0x5B	; 91
 310:	18 f4       	brcc	.+6      	; 0x318 <updateFahrmot+0x26>
	{
		outvalFML = 0xFE;						//Maximale Fahrstufe (PWM muss immer da sein)
		PORTC &= ~(1<<Qx_Fahrr_links);			//Fahrrichtung retour: Pin = Low
 312:	ab 98       	cbi	0x15, 3	; 21
		outvalFML = 0xFE;						//Maximale Fahrstufe (PWM muss immer da sein)
		PORTC |= (1<<Qx_Fahrr_links);			//Fahrrichtung vorwärts: Pin = High
	}
	else if((RemoteValue[3] < 139) & (RemoteValue[3] > 47))				//Fahrrichtung retour Maximum
	{
		outvalFML = 0xFE;						//Maximale Fahrstufe (PWM muss immer da sein)
 314:	2e ef       	ldi	r18, 0xFE	; 254
 316:	1a c0       	rjmp	.+52     	; 0x34c <updateFahrmot+0x5a>
		PORTC &= ~(1<<Qx_Fahrr_links);			//Fahrrichtung retour: Pin = Low
	}
	else if((RemoteValue[3] >= 198) & (RemoteValue[3] <= 237))				//Fahren vorwärts
 318:	98 2f       	mov	r25, r24
 31a:	96 5c       	subi	r25, 0xC6	; 198
 31c:	98 32       	cpi	r25, 0x28	; 40
 31e:	38 f4       	brcc	.+14     	; 0x32e <updateFahrmot+0x3c>
	{
		outvalFML = 6*(RemoteValue[3]-0xc6);	//PWM-Wert = 6*(Kanalwert - 198)
 320:	28 2f       	mov	r18, r24
 322:	22 0f       	add	r18, r18
 324:	28 0f       	add	r18, r24
 326:	22 0f       	add	r18, r18
 328:	24 5a       	subi	r18, 0xA4	; 164
		PORTC |= (1<<Qx_Fahrr_links);			//Fahrrichtung vorwärts: Pin = High
 32a:	ab 9a       	sbi	0x15, 3	; 21
 32c:	0f c0       	rjmp	.+30     	; 0x34c <updateFahrmot+0x5a>
	}
	else if((RemoteValue[3] <= 178) & (RemoteValue[3] >= 139))				//Fahren retour
 32e:	98 2f       	mov	r25, r24
 330:	9b 58       	subi	r25, 0x8B	; 139
 332:	98 32       	cpi	r25, 0x28	; 40
 334:	50 f4       	brcc	.+20     	; 0x34a <updateFahrmot+0x58>
	{
		outvalFML = 6*(0xb2-RemoteValue[3]);	//PWM-Wert = 6*(178 - Kanalwert)
 336:	28 2f       	mov	r18, r24
 338:	22 0f       	add	r18, r18
 33a:	28 0f       	add	r18, r24
 33c:	22 0f       	add	r18, r18
 33e:	21 95       	neg	r18
 340:	24 5d       	subi	r18, 0xD4	; 212
		PORTC &= ~(1<<Qx_Fahrr_links);			//Fahrrichtung retour: Pin = Low
 342:	ab 98       	cbi	0x15, 3	; 21
 344:	03 c0       	rjmp	.+6      	; 0x34c <updateFahrmot+0x5a>
	//========================================================================================
	//Fahrmotor links
	
	if((RemoteValue[3] > 178) & (RemoteValue[3] < 198))	//Nullstellung
	{
		outvalFML = 0x00;		//Mittelstellung: Motor anhalten
 346:	20 e0       	ldi	r18, 0x00	; 0
 348:	01 c0       	rjmp	.+2      	; 0x34c <updateFahrmot+0x5a>
//============================================================================================
//Aus Fernsteuersignal Stromrichteransteuerung berechnen und ausgeben

void updateFahrmot(void)
{
	uint8_t outvalFML = 0x00;		//PWM-Wert für Fahrmot links (links = OC1A)
 34a:	20 e0       	ldi	r18, 0x00	; 0
	}
	
	//========================================================================================
	//Fahrmotor rechts
	
	if((RemoteValue[4] > 178) & (RemoteValue[4] < 198))	//Nullstellung
 34c:	80 91 66 00 	lds	r24, 0x0066
 350:	98 2f       	mov	r25, r24
 352:	93 5b       	subi	r25, 0xB3	; 179
 354:	93 31       	cpi	r25, 0x13	; 19
 356:	20 f1       	brcs	.+72     	; 0x3a0 <updateFahrmot+0xae>
	{
		outvalFMR = 0x00;		//Mittelstellung: Motor anhalten
	}
	else if((RemoteValue[4] > 237) & (RemoteValue[4] < 255))				//Fahren vorwärts Maximum (ex 0x241)
 358:	9b 53       	subi	r25, 0x3B	; 59
 35a:	91 31       	cpi	r25, 0x11	; 17
 35c:	18 f4       	brcc	.+6      	; 0x364 <updateFahrmot+0x72>
	{
		outvalFMR = 0xFE;						//Maximale Fahrstufe (PWM muss immer da sein)
		PORTC |= (1<<Qx_Fahrr_rechts);			//Fahrrichtung vorwärts: Pin = High
 35e:	ac 9a       	sbi	0x15, 4	; 21
	{
		outvalFMR = 0x00;		//Mittelstellung: Motor anhalten
	}
	else if((RemoteValue[4] > 237) & (RemoteValue[4] < 255))				//Fahren vorwärts Maximum (ex 0x241)
	{
		outvalFMR = 0xFE;						//Maximale Fahrstufe (PWM muss immer da sein)
 360:	8e ef       	ldi	r24, 0xFE	; 254
 362:	21 c0       	rjmp	.+66     	; 0x3a6 <updateFahrmot+0xb4>
		PORTC |= (1<<Qx_Fahrr_rechts);			//Fahrrichtung vorwärts: Pin = High
	}
	else if((RemoteValue[4] < 139) & (RemoteValue[4] > 47))				//Fahrrichtung retour Maximum
 364:	98 2f       	mov	r25, r24
 366:	90 53       	subi	r25, 0x30	; 48
 368:	9b 35       	cpi	r25, 0x5B	; 91
 36a:	18 f4       	brcc	.+6      	; 0x372 <updateFahrmot+0x80>
	{
		outvalFMR = 0xFE;						//Maximale Fahrstufe (PWM muss immer da sein)
		PORTC &= ~(1<<Qx_Fahrr_rechts);			//Fahrrichtung retour: Pin = Low
 36c:	ac 98       	cbi	0x15, 4	; 21
		outvalFMR = 0xFE;						//Maximale Fahrstufe (PWM muss immer da sein)
		PORTC |= (1<<Qx_Fahrr_rechts);			//Fahrrichtung vorwärts: Pin = High
	}
	else if((RemoteValue[4] < 139) & (RemoteValue[4] > 47))				//Fahrrichtung retour Maximum
	{
		outvalFMR = 0xFE;						//Maximale Fahrstufe (PWM muss immer da sein)
 36e:	8e ef       	ldi	r24, 0xFE	; 254
 370:	1a c0       	rjmp	.+52     	; 0x3a6 <updateFahrmot+0xb4>
		PORTC &= ~(1<<Qx_Fahrr_rechts);			//Fahrrichtung retour: Pin = Low
	}
	else if((RemoteValue[4] >= 198) & (RemoteValue[4] <= 237))				//Fahren vorwärts
 372:	98 2f       	mov	r25, r24
 374:	96 5c       	subi	r25, 0xC6	; 198
 376:	98 32       	cpi	r25, 0x28	; 40
 378:	38 f4       	brcc	.+14     	; 0x388 <updateFahrmot+0x96>
	{
		outvalFMR = 6*(RemoteValue[4]-0xc6);	//PWM-Wert = 6*(Kanalwert - 198)
 37a:	98 2f       	mov	r25, r24
 37c:	99 0f       	add	r25, r25
 37e:	89 0f       	add	r24, r25
 380:	88 0f       	add	r24, r24
 382:	84 5a       	subi	r24, 0xA4	; 164
		PORTC |= (1<<Qx_Fahrr_rechts);			//Fahrrichtung vorwärts: Pin = High
 384:	ac 9a       	sbi	0x15, 4	; 21
 386:	0f c0       	rjmp	.+30     	; 0x3a6 <updateFahrmot+0xb4>
	}
	else if((RemoteValue[4] <= 178) & (RemoteValue[4] >= 139))				//Fahren retour
 388:	98 2f       	mov	r25, r24
 38a:	9b 58       	subi	r25, 0x8B	; 139
 38c:	98 32       	cpi	r25, 0x28	; 40
 38e:	50 f4       	brcc	.+20     	; 0x3a4 <updateFahrmot+0xb2>
	{
		outvalFMR = 6*(0xb2-RemoteValue[4]);	//PWM-Wert = 6*(178 - Kanalwert)
 390:	98 2f       	mov	r25, r24
 392:	99 0f       	add	r25, r25
 394:	89 0f       	add	r24, r25
 396:	88 0f       	add	r24, r24
 398:	81 95       	neg	r24
 39a:	84 5d       	subi	r24, 0xD4	; 212
		PORTC &= ~(1<<Qx_Fahrr_rechts);			//Fahrrichtung retour: Pin = Low
 39c:	ac 98       	cbi	0x15, 4	; 21
 39e:	03 c0       	rjmp	.+6      	; 0x3a6 <updateFahrmot+0xb4>
	//========================================================================================
	//Fahrmotor rechts
	
	if((RemoteValue[4] > 178) & (RemoteValue[4] < 198))	//Nullstellung
	{
		outvalFMR = 0x00;		//Mittelstellung: Motor anhalten
 3a0:	80 e0       	ldi	r24, 0x00	; 0
 3a2:	01 c0       	rjmp	.+2      	; 0x3a6 <updateFahrmot+0xb4>
//Aus Fernsteuersignal Stromrichteransteuerung berechnen und ausgeben

void updateFahrmot(void)
{
	uint8_t outvalFML = 0x00;		//PWM-Wert für Fahrmot links (links = OC1A)
	uint8_t outvalFMR = 0x00;		//PWM-Wert für Fahrmot links (rechts = OC1B)
 3a4:	80 e0       	ldi	r24, 0x00	; 0
	}
	
	//========================================================================================
	//PWM-Werte updaten
	
	OCR1AL = outvalFML;
 3a6:	2a bd       	out	0x2a, r18	; 42
	OCR1BL = outvalFMR;
 3a8:	88 bd       	out	0x28, r24	; 40
 3aa:	08 95       	ret

000003ac <__vector_4>:
//Interrupthandler

//============================================================================================
//Overflow-Interrupt Handler Timer 2
ISR(TIMER2_OVF_vect)
{
 3ac:	1f 92       	push	r1
 3ae:	0f 92       	push	r0
 3b0:	0f b6       	in	r0, 0x3f	; 63
 3b2:	0f 92       	push	r0
 3b4:	11 24       	eor	r1, r1
 3b6:	2f 93       	push	r18
 3b8:	8f 93       	push	r24
 3ba:	9f 93       	push	r25
 3bc:	ef 93       	push	r30
 3be:	ff 93       	push	r31
	uint8_t i;
	
	cli();										//Interrupts global deaktivieren
 3c0:	f8 94       	cli
 3c2:	eb e6       	ldi	r30, 0x6B	; 107
 3c4:	f0 e0       	ldi	r31, 0x00	; 0
//////////////////////////////////////////////////////////////////////////////////////////////
//Interrupthandler

//============================================================================================
//Overflow-Interrupt Handler Timer 2
ISR(TIMER2_OVF_vect)
 3c6:	81 e7       	ldi	r24, 0x71	; 113
 3c8:	90 e0       	ldi	r25, 0x00	; 0
	uint8_t i;
	
	cli();										//Interrupts global deaktivieren
	for(i=0; i<=Timearray_len; i++)
	{
		Timearray[i] ++;						//inkrementieren aller Zeitzähler
 3ca:	20 81       	ld	r18, Z
 3cc:	2f 5f       	subi	r18, 0xFF	; 255
 3ce:	21 93       	st	Z+, r18
ISR(TIMER2_OVF_vect)
{
	uint8_t i;
	
	cli();										//Interrupts global deaktivieren
	for(i=0; i<=Timearray_len; i++)
 3d0:	e8 17       	cp	r30, r24
 3d2:	f9 07       	cpc	r31, r25
 3d4:	d1 f7       	brne	.-12     	; 0x3ca <__vector_4+0x1e>
	{
		Timearray[i] ++;						//inkrementieren aller Zeitzähler
	}
	sei();										//Interrupts global aktivieren
 3d6:	78 94       	sei
}
 3d8:	ff 91       	pop	r31
 3da:	ef 91       	pop	r30
 3dc:	9f 91       	pop	r25
 3de:	8f 91       	pop	r24
 3e0:	2f 91       	pop	r18
 3e2:	0f 90       	pop	r0
 3e4:	0f be       	out	0x3f, r0	; 63
 3e6:	0f 90       	pop	r0
 3e8:	1f 90       	pop	r1
 3ea:	18 95       	reti

000003ec <main>:



int main(void)
{
	init_All();						//Grundinitialisierung
 3ec:	0e 94 51 01 	call	0x2a2	; 0x2a2 <init_All>
	sei();							//Interrupts erlauben
 3f0:	78 94       	sei
	PORTB |= (1<<Qx_BenzMotEin);	//Benzinmotor Startfreigabe
 3f2:	c6 9a       	sbi	0x18, 6	; 24
	
	while(1)
    {
		startRemoteIn();		//Fernsteuerwert einlesen
 3f4:	0e 94 42 00 	call	0x84	; 0x84 <startRemoteIn>
		updateFahrmot();		//Fahrmotorwerte aktualisieren	
 3f8:	0e 94 79 01 	call	0x2f2	; 0x2f2 <updateFahrmot>
 3fc:	fb cf       	rjmp	.-10     	; 0x3f4 <main+0x8>

000003fe <_exit>:
 3fe:	f8 94       	cli

00000400 <__stop_program>:
 400:	ff cf       	rjmp	.-2      	; 0x400 <__stop_program>
